target datalayout = "e-m:e-p270:32:32-p271:32:32-p272:64:64-i64:64-i128:128-f80:128-n8:16:32:64-S128"
target triple = "x86_64-pc-linux-gnu"

@.str.39 = private unnamed_addr constant [1 x i8] zeroinitializer, align 1
@.str.293 = private unnamed_addr constant [10 x i8] c"%-21s\09%s\0A\00", align 1
@.str.294 = private unnamed_addr constant [6 x i8] c"Temp:\00", align 1
@.str.295 = private unnamed_addr constant [24 x i8] c"Personal configuration:\00", align 1
@.str.296 = private unnamed_addr constant [22 x i8] c"Global configuration:\00", align 1
@.str.297 = private unnamed_addr constant [8 x i8] c"System:\00", align 1
@.str.298 = private unnamed_addr constant [9 x i8] c"Program:\00", align 1
@.str.299 = private unnamed_addr constant [18 x i8] c"Personal Plugins:\00", align 1
@.str.300 = private unnamed_addr constant [16 x i8] c"Global Plugins:\00", align 1
@.str.301 = private unnamed_addr constant [2 x i8] c":\00", align 1
@.str.302 = private unnamed_addr constant [22 x i8] c"Personal Extcap path:\00", align 1
@.str.303 = private unnamed_addr constant [20 x i8] c"Global Extcap path:\00", align 1
@.str.304 = private unnamed_addr constant [23 x i8] c"MaxMind database path:\00", align 1

; Function Attrs: null_pointer_is_valid sspstrong uwtable
define internal void @about_folders() #0 {
  %1 = alloca ptr, align 8
  %2 = alloca ptr, align 8
  %3 = alloca i32, align 4
  %4 = alloca ptr, align 8
  call void @llvm.lifetime.start.p0(i64 8, ptr %1) #19
  call void @llvm.lifetime.start.p0(i64 8, ptr %2) #19
  call void @llvm.lifetime.start.p0(i64 4, ptr %3) #19
  call void @llvm.lifetime.start.p0(i64 8, ptr %4) #19
  %5 = call ptr @g_get_tmp_dir()
  store ptr %5, ptr %1, align 8
  %6 = load ptr, ptr %1, align 8
  %7 = call i32 (i32, ptr, ...) @__printf_chk(i32 noundef 2, ptr noundef @.str.293, ptr noundef @.str.294, ptr noundef %6)
  %8 = call ptr @get_persconffile_path(ptr noundef @.str.39, i1 noundef zeroext false)
  store ptr %8, ptr %2, align 8
  %9 = load ptr, ptr %2, align 8
  %10 = call i32 (i32, ptr, ...) @__printf_chk(i32 noundef 2, ptr noundef @.str.293, ptr noundef @.str.295, ptr noundef %9)
  %11 = load ptr, ptr %2, align 8
  call void @g_free(ptr noundef %11)
  %12 = call ptr @get_datafile_dir()
  store ptr %12, ptr %1, align 8
  %13 = load ptr, ptr %1, align 8
  %14 = icmp ne ptr %13, null
  br i1 %14, label %15, label %18

15:                                               ; preds = %0
  %16 = load ptr, ptr %1, align 8
  %17 = call i32 (i32, ptr, ...) @__printf_chk(i32 noundef 2, ptr noundef @.str.293, ptr noundef @.str.296, ptr noundef %16)
  br label %18

18:                                               ; preds = %15, %0
  %19 = call ptr @get_systemfile_dir()
  store ptr %19, ptr %1, align 8
  %20 = load ptr, ptr %1, align 8
  %21 = call i32 (i32, ptr, ...) @__printf_chk(i32 noundef 2, ptr noundef @.str.293, ptr noundef @.str.297, ptr noundef %20)
  %22 = call ptr @get_progfile_dir()
  store ptr %22, ptr %1, align 8
  %23 = load ptr, ptr %1, align 8
  %24 = call i32 (i32, ptr, ...) @__printf_chk(i32 noundef 2, ptr noundef @.str.293, ptr noundef @.str.298, ptr noundef %23)
  %25 = call ptr @get_plugins_pers_dir_with_version()
  %26 = call i32 (i32, ptr, ...) @__printf_chk(i32 noundef 2, ptr noundef @.str.293, ptr noundef @.str.299, ptr noundef %25)
  %27 = call ptr @get_plugins_dir_with_version()
  %28 = call i32 (i32, ptr, ...) @__printf_chk(i32 noundef 2, ptr noundef @.str.293, ptr noundef @.str.300, ptr noundef %27)
  %29 = call ptr @get_extcap_pers_dir()
  store ptr %29, ptr %1, align 8
  %30 = load ptr, ptr %1, align 8
  %31 = call ptr @g_strsplit(ptr noundef %30, ptr noundef @.str.301, i32 noundef 10)
  store ptr %31, ptr %4, align 8
  store i32 0, ptr %3, align 4
  br label %32

32:                                               ; preds = %48, %18
  %33 = load ptr, ptr %4, align 8
  %34 = load i32, ptr %3, align 4
  %35 = sext i32 %34 to i64
  %36 = getelementptr ptr, ptr %33, i64 %35
  %37 = load ptr, ptr %36, align 8
  %38 = icmp ne ptr %37, null
  br i1 %38, label %39, label %51

39:                                               ; preds = %32
  %40 = load ptr, ptr %4, align 8
  %41 = load i32, ptr %3, align 4
  %42 = sext i32 %41 to i64
  %43 = getelementptr ptr, ptr %40, i64 %42
  %44 = load ptr, ptr %43, align 8
  %45 = call ptr @g_strchug(ptr noundef %44)
  %46 = call ptr @g_strchomp(ptr noundef %45)
  %47 = call i32 (i32, ptr, ...) @__printf_chk(i32 noundef 2, ptr noundef @.str.293, ptr noundef @.str.302, ptr noundef %46)
  br label %48

48:                                               ; preds = %39
  %49 = load i32, ptr %3, align 4
  %50 = add i32 %49, 1
  store i32 %50, ptr %3, align 4
  br label %32, !llvm.loop !23

51:                                               ; preds = %32
  %52 = load ptr, ptr %4, align 8
  call void @g_strfreev(ptr noundef %52)
  %53 = call ptr @get_extcap_dir()
  store ptr %53, ptr %1, align 8
  %54 = load ptr, ptr %1, align 8
  %55 = call ptr @g_strsplit(ptr noundef %54, ptr noundef @.str.301, i32 noundef 10)
  store ptr %55, ptr %4, align 8
  store i32 0, ptr %3, align 4
  br label %56

56:                                               ; preds = %72, %51
  %57 = load ptr, ptr %4, align 8
  %58 = load i32, ptr %3, align 4
  %59 = sext i32 %58 to i64
  %60 = getelementptr ptr, ptr %57, i64 %59
  %61 = load ptr, ptr %60, align 8
  %62 = icmp ne ptr %61, null
  br i1 %62, label %63, label %75

63:                                               ; preds = %56
  %64 = load ptr, ptr %4, align 8
  %65 = load i32, ptr %3, align 4
  %66 = sext i32 %65 to i64
  %67 = getelementptr ptr, ptr %64, i64 %66
  %68 = load ptr, ptr %67, align 8
  %69 = call ptr @g_strchug(ptr noundef %68)
  %70 = call ptr @g_strchomp(ptr noundef %69)
  %71 = call i32 (i32, ptr, ...) @__printf_chk(i32 noundef 2, ptr noundef @.str.293, ptr noundef @.str.303, ptr noundef %70)
  br label %72

72:                                               ; preds = %63
  %73 = load i32, ptr %3, align 4
  %74 = add i32 %73, 1
  store i32 %74, ptr %3, align 4
  br label %56, !llvm.loop !24

75:                                               ; preds = %56
  %76 = load ptr, ptr %4, align 8
  call void @g_strfreev(ptr noundef %76)
  %77 = call ptr @maxmind_db_get_paths()
  store ptr %77, ptr %2, align 8
  %78 = load ptr, ptr %2, align 8
  %79 = call ptr @g_strsplit(ptr noundef %78, ptr noundef @.str.301, i32 noundef 10)
  store ptr %79, ptr %4, align 8
  store i32 0, ptr %3, align 4
  br label %80

80:                                               ; preds = %96, %75
  %81 = load ptr, ptr %4, align 8
  %82 = load i32, ptr %3, align 4
  %83 = sext i32 %82 to i64
  %84 = getelementptr ptr, ptr %81, i64 %83
  %85 = load ptr, ptr %84, align 8
  %86 = icmp ne ptr %85, null
  br i1 %86, label %87, label %99

87:                                               ; preds = %80
  %88 = load ptr, ptr %4, align 8
  %89 = load i32, ptr %3, align 4
  %90 = sext i32 %89 to i64
  %91 = getelementptr ptr, ptr %88, i64 %90
  %92 = load ptr, ptr %91, align 8
  %93 = call ptr @g_strchug(ptr noundef %92)
  %94 = call ptr @g_strchomp(ptr noundef %93)
  %95 = call i32 (i32, ptr, ...) @__printf_chk(i32 noundef 2, ptr noundef @.str.293, ptr noundef @.str.304, ptr noundef %94)
  br label %96

96:                                               ; preds = %87
  %97 = load i32, ptr %3, align 4
  %98 = add i32 %97, 1
  store i32 %98, ptr %3, align 4
  br label %80, !llvm.loop !25

99:                                               ; preds = %80
  %100 = load ptr, ptr %4, align 8
  call void @g_strfreev(ptr noundef %100)
  %101 = load ptr, ptr %2, align 8
  call void @g_free(ptr noundef %101)
  call void @llvm.lifetime.end.p0(i64 8, ptr %4) #19
  call void @llvm.lifetime.end.p0(i64 4, ptr %3) #19
  call void @llvm.lifetime.end.p0(i64 8, ptr %2) #19
  call void @llvm.lifetime.end.p0(i64 8, ptr %1) #19
  ret void
}