; Function Attrs: null_pointer_is_valid sspstrong uwtable
define internal fastcc void @about_folders() unnamed_addr #0 {
  %1 = tail call ptr @g_get_tmp_dir()
  %2 = tail call i32 (i32, ptr, ...) @__printf_chk(i32 noundef 2, ptr noundef nonnull @.str.293, ptr noundef nonnull @.str.294, ptr noundef %1)
  %3 = tail call ptr @get_persconffile_path(ptr noundef nonnull @.str.39, i1 noundef zeroext false)
  %4 = tail call i32 (i32, ptr, ...) @__printf_chk(i32 noundef 2, ptr noundef nonnull @.str.293, ptr noundef nonnull @.str.295, ptr noundef %3)
  tail call void @g_free(ptr noundef %3)
  %5 = tail call ptr @get_datafile_dir()
  %.not = icmp eq ptr %5, null
  br i1 %.not, label %8, label %6

6:                                                ; preds = %0
  %7 = tail call i32 (i32, ptr, ...) @__printf_chk(i32 noundef 2, ptr noundef nonnull @.str.293, ptr noundef nonnull @.str.296, ptr noundef nonnull %5)
  br label %8

8:                                                ; preds = %6, %0
  %9 = tail call ptr @get_systemfile_dir()
  %10 = tail call i32 (i32, ptr, ...) @__printf_chk(i32 noundef 2, ptr noundef nonnull @.str.293, ptr noundef nonnull @.str.297, ptr noundef %9)
  %11 = tail call ptr @get_progfile_dir()
  %12 = tail call i32 (i32, ptr, ...) @__printf_chk(i32 noundef 2, ptr noundef nonnull @.str.293, ptr noundef nonnull @.str.298, ptr noundef %11)
  %13 = tail call ptr @get_plugins_pers_dir_with_version()
  %14 = tail call i32 (i32, ptr, ...) @__printf_chk(i32 noundef 2, ptr noundef nonnull @.str.293, ptr noundef nonnull @.str.299, ptr noundef %13)
  %15 = tail call ptr @get_plugins_dir_with_version()
  %16 = tail call i32 (i32, ptr, ...) @__printf_chk(i32 noundef 2, ptr noundef nonnull @.str.293, ptr noundef nonnull @.str.300, ptr noundef %15)
  %17 = tail call ptr @get_extcap_pers_dir()
  %18 = tail call ptr @g_strsplit(ptr noundef %17, ptr noundef nonnull @.str.301, i32 noundef 10)
  %19 = load ptr, ptr %18, align 8
  %.not3235 = icmp eq ptr %19, null
  br i1 %.not3235, label %._crit_edge, label %.lr.ph

.lr.ph:                                           ; preds = %8, %.lr.ph
  %20 = phi ptr [ %27, %.lr.ph ], [ %19, %8 ]
  %.036 = phi i32 [ %24, %.lr.ph ], [ 0, %8 ]
  %21 = tail call ptr @g_strchug(ptr noundef nonnull %20)
  %22 = tail call ptr @g_strchomp(ptr noundef %21)
  %23 = tail call i32 (i32, ptr, ...) @__printf_chk(i32 noundef 2, ptr noundef nonnull @.str.293, ptr noundef nonnull @.str.302, ptr noundef %22)
  %24 = add i32 %.036, 1
  %25 = sext i32 %24 to i64
  %26 = getelementptr ptr, ptr %18, i64 %25
  %27 = load ptr, ptr %26, align 8
  %.not32 = icmp eq ptr %27, null
  br i1 %.not32, label %._crit_edge, label %.lr.ph, !llvm.loop !27

._crit_edge:                                      ; preds = %.lr.ph, %8
  tail call void @g_strfreev(ptr noundef %18)
  %28 = tail call ptr @get_extcap_dir()
  %29 = tail call ptr @g_strsplit(ptr noundef %28, ptr noundef nonnull @.str.301, i32 noundef 10)
  %30 = load ptr, ptr %29, align 8
  %.not3337 = icmp eq ptr %30, null
  br i1 %.not3337, label %._crit_edge41, label %.lr.ph40

.lr.ph40:                                         ; preds = %._crit_edge, %.lr.ph40
  %31 = phi ptr [ %38, %.lr.ph40 ], [ %30, %._crit_edge ]
  %.138 = phi i32 [ %35, %.lr.ph40 ], [ 0, %._crit_edge ]
  %32 = tail call ptr @g_strchug(ptr noundef nonnull %31)
  %33 = tail call ptr @g_strchomp(ptr noundef %32)
  %34 = tail call i32 (i32, ptr, ...) @__printf_chk(i32 noundef 2, ptr noundef nonnull @.str.293, ptr noundef nonnull @.str.303, ptr noundef %33)
  %35 = add i32 %.138, 1
  %36 = sext i32 %35 to i64
  %37 = getelementptr ptr, ptr %29, i64 %36
  %38 = load ptr, ptr %37, align 8
  %.not33 = icmp eq ptr %38, null
  br i1 %.not33, label %._crit_edge41, label %.lr.ph40, !llvm.loop !28

._crit_edge41:                                    ; preds = %.lr.ph40, %._crit_edge
  tail call void @g_strfreev(ptr noundef %29)
  %39 = tail call ptr @maxmind_db_get_paths()
  %40 = tail call ptr @g_strsplit(ptr noundef %39, ptr noundef nonnull @.str.301, i32 noundef 10)
  %41 = load ptr, ptr %40, align 8
  %.not3442 = icmp eq ptr %41, null
  br i1 %.not3442, label %._crit_edge46, label %.lr.ph45

.lr.ph45:                                         ; preds = %._crit_edge41, %.lr.ph45
  %42 = phi ptr [ %49, %.lr.ph45 ], [ %41, %._crit_edge41 ]
  %.243 = phi i32 [ %46, %.lr.ph45 ], [ 0, %._crit_edge41 ]
  %43 = tail call ptr @g_strchug(ptr noundef nonnull %42)
  %44 = tail call ptr @g_strchomp(ptr noundef %43)
  %45 = tail call i32 (i32, ptr, ...) @__printf_chk(i32 noundef 2, ptr noundef nonnull @.str.293, ptr noundef nonnull @.str.304, ptr noundef %44)
  %46 = add i32 %.243, 1
  %47 = sext i32 %46 to i64
  %48 = getelementptr ptr, ptr %40, i64 %47
  %49 = load ptr, ptr %48, align 8
  %.not34 = icmp eq ptr %49, null
  br i1 %.not34, label %._crit_edge46, label %.lr.ph45, !llvm.loop !29

._crit_edge46:                                    ; preds = %.lr.ph45, %._crit_edge41
  tail call void @g_strfreev(ptr noundef %40)
  tail call void @g_free(ptr noundef %39)
  ret void
}